; Function Attrs: cold mustprogress norecurse uwtable
define internal fastcc void @_ZL11reportErrorPKcRKN4Luau10ParseErrorE(ptr noundef %0, ptr noundef nonnull align 8 dereferenceable(56) %1) unnamed_addr #12 {
  %3 = tail call noundef nonnull align 4 dereferenceable(16) ptr @_ZNK4Luau10ParseError11getLocationEv(ptr noundef nonnull align 8 dereferenceable(56) %1)
  %4 = load ptr, ptr %1, align 8, !tbaa !181
  %5 = getelementptr inbounds nuw i8, ptr %4, i64 16
  %6 = load ptr, ptr %5, align 8
  %7 = tail call noundef ptr %6(ptr noundef nonnull align 8 dereferenceable(56) %1) #25
  %.val = load i32, ptr %3, align 4, !tbaa !183
  %8 = getelementptr inbounds nuw i8, ptr %3, i64 4
  %.val3 = load i32, ptr %8, align 4, !tbaa !186
  %9 = load ptr, ptr @stderr, align 8, !tbaa !22
  %10 = add i32 %.val, 1
  %11 = add i32 %.val3, 1
  %12 = tail call i32 (ptr, ptr, ...) @fprintf(ptr noundef %9, ptr noundef nonnull @.str.103, ptr noundef %0, i32 noundef %10, i32 noundef %11, ptr noundef nonnull @.str.104, ptr noundef %7) #29
  ret void
}